; Function Attrs: null_pointer_is_valid sspstrong uwtable
define internal i32 @dissect_ulp_T_mdn_01(ptr noundef %0, i32 noundef %1, ptr noundef %2, ptr noundef %3, i32 noundef %4) #0 {
  %6 = alloca ptr, align 8
  call void @llvm.lifetime.start.p0(i64 8, ptr nonnull %6) #8
  %7 = call i32 @dissect_per_octet_string(ptr noundef %0, i32 noundef %1, ptr noundef %2, ptr noundef %3, i32 noundef %4, i32 noundef 8, i32 noundef 8, i1 noundef zeroext false, ptr noundef nonnull %6)
  %8 = load ptr, ptr %6, align 8
  %.not = icmp eq ptr %8, null
  br i1 %.not, label %22, label %9

9:                                                ; preds = %5
  %10 = getelementptr inbounds nuw i8, ptr %2, i64 24
  %11 = load ptr, ptr %10, align 8
  %12 = load i32, ptr @ett_ulp_thirdPartyId, align 4
  %13 = call ptr @proto_item_add_subtree(ptr noundef %11, i32 noundef %12)
  %14 = load i32, ptr @hf_ulp_mobile_directory_number, align 4
  %15 = load ptr, ptr %6, align 8
  %16 = getelementptr inbounds nuw i8, ptr %2, i64 16
  %17 = load ptr, ptr %16, align 8
  %18 = getelementptr inbounds nuw i8, ptr %17, i64 408
  %19 = load ptr, ptr %18, align 8
  %20 = call ptr @tvb_bcd_dig_to_str(ptr noundef %19, ptr noundef %15, i32 noundef 0, i32 noundef 8, ptr noundef null, i1 noundef zeroext false)
  %21 = call ptr @proto_tree_add_string(ptr noundef %13, i32 noundef %14, ptr noundef %15, i32 noundef 0, i32 noundef 8, ptr noundef %20)
  br label %22

22:                                               ; preds = %9, %5
  call void @llvm.lifetime.end.p0(i64 8, ptr nonnull %6) #8
  ret i32 %7
}